; Function Attrs: mustprogress nofree norecurse nosync nounwind willreturn memory(argmem: write) uwtable
define hidden void @_ZN4cvc58internal6theory5arith6linear14ConstraintRuleC2EPNS3_10ConstraintENS3_14ArithProofTypeE(ptr nocapture noundef nonnull writeonly align 8 dereferenceable(32) %this, ptr noundef %con, i32 noundef %pt) unnamed_addr #3 align 2 {
entry:
  store ptr %con, ptr %this, align 8
  %d_proofType = getelementptr inbounds i8, ptr %this, i64 8
  store i32 %pt, ptr %d_proofType, align 8
  %d_antecedentEnd = getelementptr inbounds i8, ptr %this, i64 16
  store i64 -1, ptr %d_antecedentEnd, align 8
  %d_farkasCoefficients = getelementptr inbounds i8, ptr %this, i64 24
  store ptr null, ptr %d_farkasCoefficients, align 8
  ret void
}